target datalayout = "e-m:e-p270:32:32-p271:32:32-p272:64:64-i64:64-i128:128-f80:128-n8:16:32:64-S128"
target triple = "x86_64-pc-linux-gnu"

%struct.H5G_loc_t = type { ptr, ptr }
%struct.H5O_loc_t = type { ptr, i64, i8 }
%struct.H5G_gnba_iter_t = type { ptr, ptr }

@.str = private unnamed_addr constant [2 x i8] c"/\00", align 1
@.str.1 = private unnamed_addr constant [101 x i8] c"generated/home/dtcxzyw/WorkSpace/Projects/compilers/llvm-opt-benchmark/bench/hdf5/hdf5/src/H5Gname.c\00", align 1
@H5E_SYM_g = external global i64, align 8
@H5E_CANTGET_g = external global i64, align 8
@H5E_BADITER_g = external global i64, align 8
@__func__.H5G_get_name_by_addr = private unnamed_addr constant [21 x i8] c"H5G_get_name_by_addr\00", align 1
@.str.12 = private unnamed_addr constant [32 x i8] c"can't get root group's location\00", align 1
@.str.13 = private unnamed_addr constant [1 x i8] zeroinitializer, align 1
@H5E_CANTALLOC_g = external global i64, align 8
@.str.14 = private unnamed_addr constant [28 x i8] c"can't duplicate path string\00", align 1
@.str.15 = private unnamed_addr constant [53 x i8] c"group traversal failed while looking for object name\00", align 1

; Function Attrs: nounwind uwtable
define i32 @H5G_get_name_by_addr(ptr noundef %0, ptr noundef %1, ptr noundef %2, i64 noundef %3, ptr noundef %4) #0 {
  %6 = alloca ptr, align 8
  %7 = alloca ptr, align 8
  %8 = alloca ptr, align 8
  %9 = alloca i64, align 8
  %10 = alloca ptr, align 8
  %11 = alloca %struct.H5G_gnba_iter_t, align 8
  %12 = alloca i64, align 8
  %13 = alloca %struct.H5G_loc_t, align 8
  %14 = alloca i8, align 1
  %15 = alloca i32, align 4
  %16 = alloca i32, align 4
  %17 = alloca i8, align 1
  store ptr %0, ptr %6, align 8
  store ptr %1, ptr %7, align 8
  store ptr %2, ptr %8, align 8
  store i64 %3, ptr %9, align 8
  store ptr %4, ptr %10, align 8
  store i8 0, ptr %14, align 1
  store i32 0, ptr %16, align 4
  call void @llvm.memset.p0.i64(ptr align 8 %11, i8 0, i64 16, i1 false)
  store i8 0, ptr %17, align 1
  %18 = load ptr, ptr %6, align 8
  %19 = call i32 @H5G_root_loc(ptr noundef %18, ptr noundef %13)
  %20 = icmp slt i32 %19, 0
  br i1 %20, label %21, label %36

21:                                               ; preds = %5
  br label %22

22:                                               ; preds = %21
  br label %23

23:                                               ; preds = %22
  br label %24

24:                                               ; preds = %23
  %25 = load i64, ptr @H5E_SYM_g, align 8
  %26 = load i64, ptr @H5E_CANTGET_g, align 8
  %27 = call i32 (ptr, ptr, i32, i64, i64, ptr, ...) @H5E_printf_stack(ptr noundef @.str.1, ptr noundef @__func__.H5G_get_name_by_addr, i32 noundef 1119, i64 noundef %25, i64 noundef %26, ptr noundef @.str.12)
  br label %28

28:                                               ; preds = %24
  store i8 1, ptr %17, align 1
  %29 = load i8, ptr %17, align 1
  %30 = trunc i8 %29 to i1
  %31 = zext i1 %30 to i8
  store i8 %31, ptr %17, align 1
  br label %32

32:                                               ; preds = %28
  br label %33

33:                                               ; preds = %32
  store i32 -1, ptr %16, align 4
  br label %138

34:                                               ; No predecessors!
  br label %35

35:                                               ; preds = %34
  br label %36

36:                                               ; preds = %35, %5
  %37 = getelementptr inbounds %struct.H5G_loc_t, ptr %13, i32 0, i32 0
  %38 = load ptr, ptr %37, align 8
  %39 = getelementptr inbounds %struct.H5O_loc_t, ptr %38, i32 0, i32 1
  %40 = load i64, ptr %39, align 8
  %41 = load ptr, ptr %7, align 8
  %42 = getelementptr inbounds %struct.H5O_loc_t, ptr %41, i32 0, i32 1
  %43 = load i64, ptr %42, align 8
  %44 = icmp eq i64 %40, %43
  br i1 %44, label %45, label %74

45:                                               ; preds = %36
  %46 = getelementptr inbounds %struct.H5G_loc_t, ptr %13, i32 0, i32 0
  %47 = load ptr, ptr %46, align 8
  %48 = getelementptr inbounds %struct.H5O_loc_t, ptr %47, i32 0, i32 0
  %49 = load ptr, ptr %48, align 8
  %50 = load ptr, ptr %7, align 8
  %51 = getelementptr inbounds %struct.H5O_loc_t, ptr %50, i32 0, i32 0
  %52 = load ptr, ptr %51, align 8
  %53 = icmp eq ptr %49, %52
  br i1 %53, label %54, label %74

54:                                               ; preds = %45
  %55 = call noalias ptr @H5MM_strdup(ptr noundef @.str.13)
  %56 = getelementptr inbounds %struct.H5G_gnba_iter_t, ptr %11, i32 0, i32 1
  store ptr %55, ptr %56, align 8
  %57 = icmp eq ptr null, %55
  br i1 %57, label %58, label %73

58:                                               ; preds = %54
  br label %59

59:                                               ; preds = %58
  br label %60

60:                                               ; preds = %59
  br label %61

61:                                               ; preds = %60
  %62 = load i64, ptr @H5E_SYM_g, align 8
  %63 = load i64, ptr @H5E_CANTALLOC_g, align 8
  %64 = call i32 (ptr, ptr, i32, i64, i64, ptr, ...) @H5E_printf_stack(ptr noundef @.str.1, ptr noundef @__func__.H5G_get_name_by_addr, i32 noundef 1124, i64 noundef %62, i64 noundef %63, ptr noundef @.str.14)
  br label %65

65:                                               ; preds = %61
  store i8 1, ptr %17, align 1
  %66 = load i8, ptr %17, align 1
  %67 = trunc i8 %66 to i1
  %68 = zext i1 %67 to i8
  store i8 %68, ptr %17, align 1
  br label %69

69:                                               ; preds = %65
  br label %70

70:                                               ; preds = %69
  store i32 -1, ptr %16, align 4
  br label %138

71:                                               ; No predecessors!
  br label %72

72:                                               ; preds = %71
  br label %73

73:                                               ; preds = %72, %54
  store i8 1, ptr %14, align 1
  br label %101

74:                                               ; preds = %45, %36
  %75 = load ptr, ptr %7, align 8
  %76 = getelementptr inbounds %struct.H5G_gnba_iter_t, ptr %11, i32 0, i32 0
  store ptr %75, ptr %76, align 8
  %77 = getelementptr inbounds %struct.H5G_gnba_iter_t, ptr %11, i32 0, i32 1
  store ptr null, ptr %77, align 8
  %78 = call i32 @H5G_visit(ptr noundef %13, ptr noundef @.str, i32 noundef 0, i32 noundef 2, ptr noundef @H5G__get_name_by_addr_cb, ptr noundef %11)
  store i32 %78, ptr %15, align 4
  %79 = icmp slt i32 %78, 0
  br i1 %79, label %80, label %95

80:                                               ; preds = %74
  br label %81

81:                                               ; preds = %80
  br label %82

82:                                               ; preds = %81
  br label %83

83:                                               ; preds = %82
  %84 = load i64, ptr @H5E_SYM_g, align 8
  %85 = load i64, ptr @H5E_BADITER_g, align 8
  %86 = call i32 (ptr, ptr, i32, i64, i64, ptr, ...) @H5E_printf_stack(ptr noundef @.str.1, ptr noundef @__func__.H5G_get_name_by_addr, i32 noundef 1135, i64 noundef %84, i64 noundef %85, ptr noundef @.str.15)
  br label %87

87:                                               ; preds = %83
  store i8 1, ptr %17, align 1
  %88 = load i8, ptr %17, align 1
  %89 = trunc i8 %88 to i1
  %90 = zext i1 %89 to i8
  store i8 %90, ptr %17, align 1
  br label %91

91:                                               ; preds = %87
  br label %92

92:                                               ; preds = %91
  store i32 -1, ptr %16, align 4
  br label %138

93:                                               ; No predecessors!
  br label %94

94:                                               ; preds = %93
  br label %100

95:                                               ; preds = %74
  %96 = load i32, ptr %15, align 4
  %97 = icmp sgt i32 %96, 0
  br i1 %97, label %98, label %99

98:                                               ; preds = %95
  store i8 1, ptr %14, align 1
  br label %99

99:                                               ; preds = %98, %95
  br label %100

100:                                              ; preds = %99, %94
  br label %101

101:                                              ; preds = %100, %73
  %102 = load i8, ptr %14, align 1
  %103 = trunc i8 %102 to i1
  br i1 %103, label %104, label %130

104:                                              ; preds = %101
  %105 = getelementptr inbounds %struct.H5G_gnba_iter_t, ptr %11, i32 0, i32 1
  %106 = load ptr, ptr %105, align 8
  %107 = call i64 @strlen(ptr noundef %106) #6
  %108 = add i64 %107, 1
  store i64 %108, ptr %12, align 8
  %109 = load ptr, ptr %8, align 8
  %110 = icmp ne ptr %109, null
  br i1 %110, label %111, label %129

111:                                              ; preds = %104
  %112 = load ptr, ptr %8, align 8
  %113 = call ptr @strncpy(ptr noundef %112, ptr noundef @.str, i64 noundef 2) #7
  %114 = load ptr, ptr %8, align 8
  %115 = getelementptr inbounds %struct.H5G_gnba_iter_t, ptr %11, i32 0, i32 1
  %116 = load ptr, ptr %115, align 8
  %117 = load i64, ptr %9, align 8
  %118 = sub i64 %117, 2
  %119 = call ptr @strncat(ptr noundef %114, ptr noundef %116, i64 noundef %118) #7
  %120 = load i64, ptr %12, align 8
  %121 = load i64, ptr %9, align 8
  %122 = icmp uge i64 %120, %121
  br i1 %122, label %123, label %128

123:                                              ; preds = %111
  %124 = load ptr, ptr %8, align 8
  %125 = load i64, ptr %9, align 8
  %126 = sub i64 %125, 1
  %127 = getelementptr inbounds i8, ptr %124, i64 %126
  store i8 0, ptr %127, align 1
  br label %128

128:                                              ; preds = %123, %111
  br label %129

129:                                              ; preds = %128, %104
  br label %131

130:                                              ; preds = %101
  store i64 0, ptr %12, align 8
  br label %131

131:                                              ; preds = %130, %129
  %132 = load ptr, ptr %10, align 8
  %133 = icmp ne ptr %132, null
  br i1 %133, label %134, label %137

134:                                              ; preds = %131
  %135 = load i64, ptr %12, align 8
  %136 = load ptr, ptr %10, align 8
  store i64 %135, ptr %136, align 8
  br label %137

137:                                              ; preds = %134, %131
  br label %138

138:                                              ; preds = %137, %92, %70, %33
  %139 = getelementptr inbounds %struct.H5G_gnba_iter_t, ptr %11, i32 0, i32 1
  %140 = load ptr, ptr %139, align 8
  %141 = call ptr @H5MM_xfree(ptr noundef %140)
  %142 = load i32, ptr %16, align 4
  ret i32 %142
}