; Function Attrs: nounwind uwtable
define range(i32 -1, 1) i32 @H5G_get_name_by_addr(ptr noundef %0, ptr noundef %1, ptr noundef %2, i64 noundef %3, ptr noundef writeonly %4) local_unnamed_addr #2 {
  %6 = alloca %struct.H5G_gnba_iter_t, align 8
  %7 = alloca %struct.H5G_loc_t, align 8
  call void @llvm.memset.p0.i64(ptr noundef nonnull align 8 dereferenceable(16) %6, i8 0, i64 16, i1 false)
  %8 = call i32 @H5G_root_loc(ptr noundef %0, ptr noundef nonnull %7) #10
  %9 = icmp slt i32 %8, 0
  br i1 %9, label %10, label %14

10:                                               ; preds = %5
  %11 = load i64, ptr @H5E_SYM_g, align 8
  %12 = load i64, ptr @H5E_CANTGET_g, align 8
  %13 = call i32 (ptr, ptr, i32, i64, i64, ptr, ...) @H5E_printf_stack(ptr noundef nonnull @.str.1, ptr noundef nonnull @__func__.H5G_get_name_by_addr, i32 noundef 1119, i64 noundef %11, i64 noundef %12, ptr noundef nonnull @.str.12) #10
  br label %53

14:                                               ; preds = %5
  %15 = load ptr, ptr %7, align 8
  %16 = getelementptr inbounds i8, ptr %15, i64 8
  %17 = load i64, ptr %16, align 8
  %18 = getelementptr inbounds i8, ptr %1, i64 8
  %19 = load i64, ptr %18, align 8
  %20 = icmp eq i64 %17, %19
  br i1 %20, label %21, label %33

21:                                               ; preds = %14
  %22 = load ptr, ptr %15, align 8
  %23 = load ptr, ptr %1, align 8
  %24 = icmp eq ptr %22, %23
  br i1 %24, label %25, label %33

25:                                               ; preds = %21
  %26 = call noalias ptr @H5MM_strdup(ptr noundef nonnull @.str.13) #10
  %27 = getelementptr inbounds i8, ptr %6, i64 8
  store ptr %26, ptr %27, align 8
  %28 = icmp eq ptr %26, null
  br i1 %28, label %29, label %.critedge

29:                                               ; preds = %25
  %30 = load i64, ptr @H5E_SYM_g, align 8
  %31 = load i64, ptr @H5E_CANTALLOC_g, align 8
  %32 = call i32 (ptr, ptr, i32, i64, i64, ptr, ...) @H5E_printf_stack(ptr noundef nonnull @.str.1, ptr noundef nonnull @__func__.H5G_get_name_by_addr, i32 noundef 1124, i64 noundef %30, i64 noundef %31, ptr noundef nonnull @.str.14) #10
  br label %53

33:                                               ; preds = %21, %14
  store ptr %1, ptr %6, align 8
  %34 = getelementptr inbounds i8, ptr %6, i64 8
  store ptr null, ptr %34, align 8
  %35 = call i32 @H5G_visit(ptr noundef nonnull %7, ptr noundef nonnull @.str, i32 noundef 0, i32 noundef 2, ptr noundef nonnull @H5G__get_name_by_addr_cb, ptr noundef nonnull %6) #10
  %36 = icmp slt i32 %35, 0
  br i1 %36, label %37, label %41

37:                                               ; preds = %33
  %38 = load i64, ptr @H5E_SYM_g, align 8
  %39 = load i64, ptr @H5E_BADITER_g, align 8
  %40 = call i32 (ptr, ptr, i32, i64, i64, ptr, ...) @H5E_printf_stack(ptr noundef nonnull @.str.1, ptr noundef nonnull @__func__.H5G_get_name_by_addr, i32 noundef 1135, i64 noundef %38, i64 noundef %39, ptr noundef nonnull @.str.15) #10
  br label %53

41:                                               ; preds = %33
  %.not.not = icmp eq i32 %35, 0
  br i1 %.not.not, label %51, label %..critedge_crit_edge

..critedge_crit_edge:                             ; preds = %41
  %.pre = load ptr, ptr %34, align 8
  br label %.critedge

.critedge:                                        ; preds = %..critedge_crit_edge, %25
  %42 = phi ptr [ %.pre, %..critedge_crit_edge ], [ %26, %25 ]
  %43 = call i64 @strlen(ptr noundef nonnull dereferenceable(1) %42) #9
  %44 = add i64 %43, 1
  %.not27 = icmp eq ptr %2, null
  br i1 %.not27, label %51, label %45

45:                                               ; preds = %.critedge
  store i16 47, ptr %2, align 1
  %46 = add i64 %3, -2
  %47 = call ptr @strncat(ptr noundef nonnull dereferenceable(1) %2, ptr noundef %42, i64 noundef %46) #10
  %.not28 = icmp ult i64 %44, %3
  br i1 %.not28, label %51, label %48

48:                                               ; preds = %45
  %49 = getelementptr i8, ptr %2, i64 %3
  %50 = getelementptr i8, ptr %49, i64 -1
  store i8 0, ptr %50, align 1
  br label %51

51:                                               ; preds = %41, %.critedge, %48, %45
  %.020 = phi i64 [ %44, %48 ], [ %44, %45 ], [ %44, %.critedge ], [ 0, %41 ]
  %.not29 = icmp eq ptr %4, null
  br i1 %.not29, label %53, label %52

52:                                               ; preds = %51
  store i64 %.020, ptr %4, align 8
  br label %53

53:                                               ; preds = %51, %52, %37, %29, %10
  %.0 = phi i32 [ -1, %10 ], [ -1, %29 ], [ 0, %52 ], [ 0, %51 ], [ -1, %37 ]
  %54 = getelementptr inbounds i8, ptr %6, i64 8
  %55 = load ptr, ptr %54, align 8
  %56 = call ptr @H5MM_xfree(ptr noundef %55) #10
  ret i32 %.0
}